Certificate:
    Data:
        Version: 3 (0x2)
        Serial Number: 1 (0x1)
    Signature Algorithm: md5WithRSAEncryption
        Issuer: C=US, ST=AZ, L=Scottsdale, O=IT INFRASTRUCTURE/emailAddress=it@discounttire.com, CN=ACS.TRTC.COM
        Validity
            Not Before: Aug 29 22:21:46 2016 GMT
            Not After : Aug 29 22:21:46 2017 GMT
        Subject: C=US, ST=AZ, O=IT INFRASTRUCTURE, CN=ACS.TRTC.COM/emailAddress=it@discounttire.com
        Subject Public Key Info:
            Public Key Algorithm: rsaEncryption
                Public-Key: (2048 bit)
                Modulus:
                    00:bb:4f:b6:2b:f7:90:8e:cc:69:1c:36:28:b9:3d:
                    a1:97:27:77:aa:ad:dd:da:a8:b7:0a:c8:88:53:b4:
                    bd:72:bf:00:f7:dc:bd:3e:ac:fe:d0:ab:e2:54:03:
                    6d:60:a3:f3:0e:ee:6e:b9:c9:d1:e4:75:1e:be:4d:
                    58:2d:05:4c:19:4b:89:30:a7:cd:83:21:1e:f0:b8:
                    08:96:c2:d2:fc:0b:1d:7e:02:93:fc:09:ae:6e:f2:
                    23:3d:42:af:dc:d9:15:ac:15:2d:47:63:c0:2f:c0:
                    06:9c:05:85:3d:e2:14:c3:61:23:3c:7a:e0:6f:50:
                    ff:25:a5:2b:fc:b7:fa:2d:38:16:80:bb:50:a3:ad:
                    4c:13:80:be:03:2c:c1:9a:2c:0a:56:57:7f:98:9d:
                    9c:71:e2:33:3d:04:1c:36:a3:76:40:82:46:68:86:
                    45:ad:1b:70:62:33:12:3c:24:f0:f4:ed:50:68:0d:
                    6f:44:c8:39:88:30:62:91:74:0b:ab:9e:d8:f1:3c:
                    46:4b:df:ba:3a:9b:b6:65:84:82:6b:0a:d2:1d:a4:
                    18:e6:01:20:d5:4b:ad:d8:4c:e1:db:36:e8:c7:27:
                    c1:ca:52:39:4c:34:4f:bd:1a:c3:9d:77:9f:0b:25:
                    e8:db:49:59:4d:24:27:93:2f:7e:82:9c:08:4b:85:
                    d8:dd
                Exponent: 65537 (0x10001)
        X509v3 extensions:
            X509v3 Extended Key Usage: 
                TLS Web Server Authentication
    Signature Algorithm: md5WithRSAEncryption
         99:19:ea:55:81:eb:33:a3:f2:02:07:34:0b:04:c8:79:94:48:
         a5:ec:22:75:b9:e5:1c:43:8d:f6:f5:47:f2:72:43:31:59:3b:
         bb:d4:e4:5c:df:b0:61:82:af:c2:d0:97:70:53:b4:97:e8:57:
         38:e3:2c:a8:9b:6f:e0:06:36:71:21:80:8e:2a:a9:3f:38:dd:
         ef:4c:28:1a:44:4d:fe:2c:24:64:61:2c:ef:67:6a:df:04:25:
         d7:e7:75:bd:e5:8a:df:4b:66:7b:b0:a8:08:0e:71:61:ea:84:
         a8:bf:7e:aa:ab:0f:5c:94:cd:c6:2d:89:86:b5:ab:8d:54:99:
         e8:57:09:4e:9a:1a:d5:af:9b:28:76:07:72:61:54:d7:eb:16:
         22:f4:9d:6f:44:3f:47:bf:21:17:ed:fd:6c:60:66:56:e8:dc:
         63:51:0b:35:43:2f:cd:95:c3:5f:14:7d:5a:d5:14:98:5d:e9:
         6c:c9:ed:f8:1e:05:e3:70:7a:3d:2e:09:d5:b3:15:30:4c:b2:
         94:57:e7:e8:1d:a3:66:90:0c:7d:75:a9:cb:7d:78:84:47:81:
         c0:e0:f4:f3:9f:fb:6d:e3:7e:53:d4:52:6b:e5:5b:7c:87:9b:
         e0:18:b4:a6:3c:79:78:0f:0f:36:70:f3:b9:9e:84:6a:b9:f9:
         d8:14:69:56
-----BEGIN CERTIFICATE-----
MIIDijCCAnKgAwIBAgIBATANBgkqhkiG9w0BAQQFADCBhjELMAkGA1UEBhMCVVMx
CzAJBgNVBAgMAkFaMRMwEQYDVQQHDApTY290dHNkYWxlMRowGAYDVQQKDBFJVCBJ
TkZSQVNUUlVDVFVSRTEiMCAGCSqGSIb3DQEJARYTaXRAZGlzY291bnR0aXJlLmNv
bTEVMBMGA1UEAwwMQUNTLlRSVEMuQ09NMB4XDTE2MDgyOTIyMjE0NloXDTE3MDgy
OTIyMjE0NlowcTELMAkGA1UEBhMCVVMxCzAJBgNVBAgMAkFaMRowGAYDVQQKDBFJ
VCBJTkZSQVNUUlVDVFVSRTEVMBMGA1UEAwwMQUNTLlRSVEMuQ09NMSIwIAYJKoZI
hvcNAQkBFhNpdEBkaXNjb3VudHRpcmUuY29tMIIBIjANBgkqhkiG9w0BAQEFAAOC
AQ8AMIIBCgKCAQEAu0+2K/eQjsxpHDYouT2hlyd3qq3d2qi3CsiIU7S9cr8A99y9
Pqz+0KviVANtYKPzDu5uucnR5HUevk1YLQVMGUuJMKfNgyEe8LgIlsLS/AsdfgKT
/AmubvIjPUKv3NkVrBUtR2PAL8AGnAWFPeIUw2EjPHrgb1D/JaUr/Lf6LTgWgLtQ
o61ME4C+AyzBmiwKVld/mJ2cceIzPQQcNqN2QIJGaIZFrRtwYjMSPCTw9O1QaA1v
RMg5iDBikXQLq57Y8TxGS9+6Opu2ZYSCawrSHaQY5gEg1Uut2Ezh2zboxyfBylI5
TDRPvRrDnXefCyXo20lZTSQnky9+gpwIS4XY3QIDAQABoxcwFTATBgNVHSUEDDAK
BggrBgEFBQcDATANBgkqhkiG9w0BAQQFAAOCAQEAmRnqVYHrM6PyAgc0CwTIeZRI
pewidbnlHEON9vVH8nJDMVk7u9TkXN+wYYKvwtCXcFO0l+hXOOMsqJtv4AY2cSGA
jiqpPzjd70woGkRN/iwkZGEs72dq3wQl1+d1veWK30tme7CoCA5xYeqEqL9+qqsP
XJTNxi2JhrWrjVSZ6FcJTpoa1a+bKHYHcmFU1+sWIvSdb0Q/R78hF+39bGBmVujc
Y1ELNUMvzZXDXxR9WtUUmF3pbMnt+B4F43B6PS4J1bMVMEyylFfn6B2jZpAMfXWp
y314hEeBwOD085/7beN+U9RSa+VbfIeb4Bi0pjx5eA8PNnDzuZ6Earn52BRpVg==
-----END CERTIFICATE-----
